target datalayout = "e-m:e-p270:32:32-p271:32:32-p272:64:64-i64:64-i128:128-f80:128-n8:16:32:64-S128"
target triple = "x86_64-pc-linux-gnu"

%struct.assoc_mgr_info_msg_t = type { ptr, ptr, i32, ptr, ptr }

; Function Attrs: nounwind uwtable
define dso_local void @slurm_free_assoc_mgr_info_msg(ptr noundef %0) #0 {
  %2 = alloca ptr, align 8
  %3 = alloca i32, align 4
  store ptr %0, ptr %2, align 8
  %4 = load ptr, ptr %2, align 8
  %5 = icmp ne ptr %4, null
  br i1 %5, label %7, label %6

6:                                                ; preds = %1
  br label %72

7:                                                ; preds = %1
  br label %8

8:                                                ; preds = %7
  %9 = load ptr, ptr %2, align 8
  %10 = getelementptr inbounds nuw %struct.assoc_mgr_info_msg_t, ptr %9, i32 0, i32 0
  %11 = load ptr, ptr %10, align 8
  %12 = icmp ne ptr %11, null
  br i1 %12, label %13, label %17

13:                                               ; preds = %8
  %14 = load ptr, ptr %2, align 8
  %15 = getelementptr inbounds nuw %struct.assoc_mgr_info_msg_t, ptr %14, i32 0, i32 0
  %16 = load ptr, ptr %15, align 8
  call void @list_destroy(ptr noundef %16)
  br label %17

17:                                               ; preds = %13, %8
  %18 = load ptr, ptr %2, align 8
  %19 = getelementptr inbounds nuw %struct.assoc_mgr_info_msg_t, ptr %18, i32 0, i32 0
  store ptr null, ptr %19, align 8
  br label %20

20:                                               ; preds = %17
  br label %21

21:                                               ; preds = %20
  %22 = load ptr, ptr %2, align 8
  %23 = getelementptr inbounds nuw %struct.assoc_mgr_info_msg_t, ptr %22, i32 0, i32 1
  %24 = load ptr, ptr %23, align 8
  %25 = icmp ne ptr %24, null
  br i1 %25, label %26, label %30

26:                                               ; preds = %21
  %27 = load ptr, ptr %2, align 8
  %28 = getelementptr inbounds nuw %struct.assoc_mgr_info_msg_t, ptr %27, i32 0, i32 1
  %29 = load ptr, ptr %28, align 8
  call void @list_destroy(ptr noundef %29)
  br label %30

30:                                               ; preds = %26, %21
  %31 = load ptr, ptr %2, align 8
  %32 = getelementptr inbounds nuw %struct.assoc_mgr_info_msg_t, ptr %31, i32 0, i32 1
  store ptr null, ptr %32, align 8
  br label %33

33:                                               ; preds = %30
  %34 = load ptr, ptr %2, align 8
  %35 = getelementptr inbounds nuw %struct.assoc_mgr_info_msg_t, ptr %34, i32 0, i32 3
  %36 = load ptr, ptr %35, align 8
  %37 = icmp ne ptr %36, null
  br i1 %37, label %38, label %58

38:                                               ; preds = %33
  call void @llvm.lifetime.start.p0(i64 4, ptr %3) #11
  store i32 0, ptr %3, align 4
  br label %39

39:                                               ; preds = %52, %38
  %40 = load i32, ptr %3, align 4
  %41 = load ptr, ptr %2, align 8
  %42 = getelementptr inbounds nuw %struct.assoc_mgr_info_msg_t, ptr %41, i32 0, i32 2
  %43 = load i32, ptr %42, align 8
  %44 = icmp ult i32 %40, %43
  br i1 %44, label %45, label %55

45:                                               ; preds = %39
  %46 = load ptr, ptr %2, align 8
  %47 = getelementptr inbounds nuw %struct.assoc_mgr_info_msg_t, ptr %46, i32 0, i32 3
  %48 = load ptr, ptr %47, align 8
  %49 = load i32, ptr %3, align 4
  %50 = sext i32 %49 to i64
  %51 = getelementptr inbounds ptr, ptr %48, i64 %50
  call void @slurm_xfree(ptr noundef %51)
  br label %52

52:                                               ; preds = %45
  %53 = load i32, ptr %3, align 4
  %54 = add nsw i32 %53, 1
  store i32 %54, ptr %3, align 4
  br label %39, !llvm.loop !68

55:                                               ; preds = %39
  %56 = load ptr, ptr %2, align 8
  %57 = getelementptr inbounds nuw %struct.assoc_mgr_info_msg_t, ptr %56, i32 0, i32 3
  call void @slurm_xfree(ptr noundef %57)
  call void @llvm.lifetime.end.p0(i64 4, ptr %3) #11
  br label %58

58:                                               ; preds = %55, %33
  br label %59

59:                                               ; preds = %58
  %60 = load ptr, ptr %2, align 8
  %61 = getelementptr inbounds nuw %struct.assoc_mgr_info_msg_t, ptr %60, i32 0, i32 4
  %62 = load ptr, ptr %61, align 8
  %63 = icmp ne ptr %62, null
  br i1 %63, label %64, label %68

64:                                               ; preds = %59
  %65 = load ptr, ptr %2, align 8
  %66 = getelementptr inbounds nuw %struct.assoc_mgr_info_msg_t, ptr %65, i32 0, i32 4
  %67 = load ptr, ptr %66, align 8
  call void @list_destroy(ptr noundef %67)
  br label %68

68:                                               ; preds = %64, %59
  %69 = load ptr, ptr %2, align 8
  %70 = getelementptr inbounds nuw %struct.assoc_mgr_info_msg_t, ptr %69, i32 0, i32 4
  store ptr null, ptr %70, align 8
  br label %71

71:                                               ; preds = %68
  call void @slurm_xfree(ptr noundef %2)
  br label %72

72:                                               ; preds = %71, %6
  ret void
}