; Function Attrs: nounwind uwtable
define dso_local void @slurm_free_assoc_mgr_info_msg(ptr noundef %0) local_unnamed_addr #1 {
  %2 = alloca ptr, align 8
  store ptr %0, ptr %2, align 8
  %.not = icmp eq ptr %0, null
  br i1 %.not, label %25, label %3

3:                                                ; preds = %1
  %4 = load ptr, ptr %0, align 8
  %.not7 = icmp eq ptr %4, null
  br i1 %.not7, label %6, label %5

5:                                                ; preds = %3
  tail call void @list_destroy(ptr noundef nonnull %4) #24
  br label %6

6:                                                ; preds = %5, %3
  store ptr null, ptr %0, align 8
  %7 = getelementptr inbounds nuw i8, ptr %0, i64 8
  %8 = load ptr, ptr %7, align 8
  %.not8 = icmp eq ptr %8, null
  br i1 %.not8, label %10, label %9

9:                                                ; preds = %6
  tail call void @list_destroy(ptr noundef nonnull %8) #24
  br label %10

10:                                               ; preds = %9, %6
  store ptr null, ptr %7, align 8
  %11 = getelementptr inbounds nuw i8, ptr %0, i64 24
  %12 = load ptr, ptr %11, align 8
  %.not9 = icmp eq ptr %12, null
  br i1 %.not9, label %20, label %.preheader

.preheader:                                       ; preds = %10
  %13 = getelementptr inbounds nuw i8, ptr %0, i64 16
  %14 = load i32, ptr %13, align 8
  %.not12 = icmp eq i32 %14, 0
  br i1 %.not12, label %._crit_edge, label %.lr.ph

.lr.ph:                                           ; preds = %.preheader, %.lr.ph
  %indvars.iv = phi i64 [ %indvars.iv.next, %.lr.ph ], [ 0, %.preheader ]
  %15 = load ptr, ptr %11, align 8
  %16 = getelementptr inbounds nuw ptr, ptr %15, i64 %indvars.iv
  tail call void @slurm_xfree(ptr noundef %16) #24
  %indvars.iv.next = add nuw nsw i64 %indvars.iv, 1
  %17 = load i32, ptr %13, align 8
  %18 = zext i32 %17 to i64
  %19 = icmp samesign ult i64 %indvars.iv.next, %18
  br i1 %19, label %.lr.ph, label %._crit_edge, !llvm.loop !69

._crit_edge:                                      ; preds = %.lr.ph, %.preheader
  tail call void @slurm_xfree(ptr noundef nonnull %11) #24
  br label %20

20:                                               ; preds = %10, %._crit_edge
  %21 = getelementptr inbounds nuw i8, ptr %0, i64 32
  %22 = load ptr, ptr %21, align 8
  %.not10 = icmp eq ptr %22, null
  br i1 %.not10, label %24, label %23

23:                                               ; preds = %20
  tail call void @list_destroy(ptr noundef nonnull %22) #24
  br label %24

24:                                               ; preds = %23, %20
  store ptr null, ptr %21, align 8
  call void @slurm_xfree(ptr noundef nonnull %2) #24
  br label %25

25:                                               ; preds = %1, %24
  ret void
}